; Function Attrs: mustprogress uwtable
define noundef zeroext i1 @pkpy_push_string(ptr noundef %0, ptr noundef %1) local_unnamed_addr #4 personality ptr @__gxx_personality_v0 {
  %3 = alloca %"struct.pkpy::Str", align 8
  %4 = getelementptr inbounds nuw i8, ptr %0, i64 264488
  %5 = load ptr, ptr %4, align 8
  %.not = icmp eq ptr %5, null
  br i1 %.not, label %6, label %14

6:                                                ; preds = %2
  call void @llvm.lifetime.start.p0(i64 32, ptr nonnull %3)
  call void @_ZN4pkpy3StrC1EPKc(ptr noundef nonnull align 8 dereferenceable(32) %3, ptr noundef %1)
  %7 = getelementptr inbounds nuw i8, ptr %0, i64 16
  %8 = invoke noundef ptr @_ZN4pkpy11ManagedHeap5gcnewINS_3StrEJS2_EEEPNS_8PyObjectENS_4TypeEDpOT0_(ptr noundef nonnull align 8 dereferenceable(84) %7, i16 5, ptr noundef nonnull align 8 dereferenceable(32) %3)
          to label %_ZN4pkpy6py_varIRPKcEEPNS_8PyObjectEPNS_2VMEOT_.exit unwind label %9

9:                                                ; preds = %6
  %10 = landingpad { ptr, i32 }
          cleanup
  call void @_ZN4pkpy3StrD1Ev(ptr noundef nonnull align 8 dereferenceable(32) %3) #32
  resume { ptr, i32 } %10

_ZN4pkpy6py_varIRPKcEEPNS_8PyObjectEPNS_2VMEOT_.exit: ; preds = %6
  call void @_ZN4pkpy3StrD1Ev(ptr noundef nonnull align 8 dereferenceable(32) %3) #32
  call void @llvm.lifetime.end.p0(i64 32, ptr nonnull %3)
  %11 = getelementptr inbounds nuw i8, ptr %0, i64 264296
  %12 = load ptr, ptr %11, align 8
  %13 = getelementptr inbounds nuw i8, ptr %12, i64 8
  store ptr %13, ptr %11, align 8
  store ptr %8, ptr %12, align 8
  br label %14

14:                                               ; preds = %2, %_ZN4pkpy6py_varIRPKcEEPNS_8PyObjectEPNS_2VMEOT_.exit
  ret i1 %.not
}